; Function Attrs: inlinehint mustprogress nounwind uwtable
define internal void @_ZN3gmx12_GLOBAL__N_112RunnerModuleD0Ev(ptr noundef nonnull align 8 dereferenceable(40) initializes((0, 8)) %0) unnamed_addr #10 align 2 personality ptr @__gxx_personality_v0 {
  store ptr getelementptr inbounds nuw inrange(-16, 48) (i8, ptr @_ZTVN3gmx12_GLOBAL__N_112RunnerModuleE, i64 16), ptr %0, align 8, !tbaa !27
  %2 = getelementptr inbounds nuw i8, ptr %0, i64 32
  tail call void @_ZN3gmx19SelectionCollectionD1Ev(ptr noundef nonnull align 8 dereferenceable(8) %2) #16
  %3 = getelementptr inbounds nuw i8, ptr %0, i64 24
  tail call void @_ZN3gmx30TrajectoryAnalysisRunnerCommonD1Ev(ptr noundef nonnull align 8 dereferenceable(8) %3) #16
  %4 = getelementptr inbounds nuw i8, ptr %0, i64 16
  tail call void @_ZN3gmx26TrajectoryAnalysisSettingsD1Ev(ptr noundef nonnull align 8 dereferenceable(8) %4) #16
  %5 = getelementptr inbounds nuw i8, ptr %0, i64 8
  %6 = load ptr, ptr %5, align 8, !tbaa !25
  %.not.i.i = icmp eq ptr %6, null
  br i1 %.not.i.i, label %_ZN3gmx12_GLOBAL__N_112RunnerModuleD2Ev.exit, label %_ZNKSt14default_deleteIN3gmx24TrajectoryAnalysisModuleEEclEPS1_.exit.i.i

_ZNKSt14default_deleteIN3gmx24TrajectoryAnalysisModuleEEclEPS1_.exit.i.i: ; preds = %1
  %7 = load ptr, ptr %6, align 8, !tbaa !27
  %8 = getelementptr inbounds nuw i8, ptr %7, i64 8
  %9 = load ptr, ptr %8, align 8
  tail call void %9(ptr noundef nonnull align 8 dereferenceable(16) %6) #16
  br label %_ZN3gmx12_GLOBAL__N_112RunnerModuleD2Ev.exit

_ZN3gmx12_GLOBAL__N_112RunnerModuleD2Ev.exit:     ; preds = %1, %_ZNKSt14default_deleteIN3gmx24TrajectoryAnalysisModuleEEclEPS1_.exit.i.i
  store ptr null, ptr %5, align 8, !tbaa !25
  tail call void @_ZN3gmx25ICommandLineOptionsModuleD2Ev(ptr noundef nonnull align 8 dereferenceable(40) %0) #16
  tail call void @_ZdlPvm(ptr noundef nonnull %0, i64 noundef 40) #19
  ret void
}